; Function Attrs: nounwind sspstrong uwtable
define internal i64 @path_opendir(i64 noundef %0) #0 {
  %2 = alloca [1 x i64], align 8
  call void @llvm.lifetime.start.p0(i64 8, ptr nonnull %2) #7
  %3 = load i64, ptr @id_at_path, align 8, !tbaa !6
  %4 = tail call i64 @rb_ivar_get(i64 noundef %0, i64 noundef %3) #7
  %5 = icmp eq i64 %4, 0
  %6 = and i64 %4, 7
  %7 = icmp ne i64 %6, 0
  %8 = or i1 %5, %7
  br i1 %8, label %rbimpl_RB_TYPE_P_fastpath.exit.thread.i, label %rbimpl_RB_TYPE_P_fastpath.exit.i

rbimpl_RB_TYPE_P_fastpath.exit.i:                 ; preds = %1
  %9 = inttoptr i64 %4 to ptr
  %10 = load i64, ptr %9, align 8, !tbaa !10
  %11 = and i64 %10, 31
  %12 = icmp eq i64 %11, 5
  br i1 %12, label %get_strpath.exit, label %rbimpl_RB_TYPE_P_fastpath.exit.thread.i

rbimpl_RB_TYPE_P_fastpath.exit.thread.i:          ; preds = %rbimpl_RB_TYPE_P_fastpath.exit.i, %1
  %13 = load i64, ptr @rb_eTypeError, align 8, !tbaa !6
  tail call void (i64, ptr, ...) @rb_raise(i64 noundef %13, ptr noundef nonnull @.str.91) #9
  unreachable

get_strpath.exit:                                 ; preds = %rbimpl_RB_TYPE_P_fastpath.exit.i
  store i64 %4, ptr %2, align 8, !tbaa !6
  %14 = load i64, ptr @rb_cDir, align 8, !tbaa !6
  %15 = load i64, ptr @id_open, align 8, !tbaa !6
  %16 = call i64 @rb_block_call(i64 noundef %14, i64 noundef %15, i32 noundef 1, ptr noundef nonnull %2, ptr noundef null, i64 noundef 0) #7
  call void @llvm.lifetime.end.p0(i64 8, ptr nonnull %2) #7
  ret i64 %16
}